; Function Attrs: nounwind uwtable
define hidden i32 @lj_crecord_topcvoid(ptr noundef %0, i32 noundef %1, ptr noundef readonly captures(none) %2) local_unnamed_addr #0 {
  %4 = and i32 %1, 520093696
  %5 = icmp eq i32 %4, 167772160
  br i1 %5, label %7, label %6

6:                                                ; preds = %3
  tail call void @lj_trace_err(ptr noundef %0, i32 noundef 11) #7
  unreachable

7:                                                ; preds = %3
  %8 = getelementptr inbounds i8, ptr %0, i64 -352
  %9 = load i64, ptr %8, align 8, !tbaa !34
  %10 = inttoptr i64 %9 to ptr
  %11 = load ptr, ptr %10, align 8, !tbaa !45
  %12 = getelementptr inbounds nuw i8, ptr %11, i64 432
  %13 = tail call fastcc i32 @crec_ct_tv(ptr noundef %0, ptr noundef nonnull %12, i32 noundef 0, i32 noundef %1, ptr noundef %2)
  ret i32 %13
}